target datalayout = "e-m:e-p270:32:32-p271:32:32-p272:64:64-i64:64-i128:128-f80:128-n8:16:32:64-S128"
target triple = "x86_64-pc-linux-gnu"

; Function Attrs: nounwind uwtable
define internal void @palToY_c(ptr noundef %0, ptr noundef %1, ptr noundef %2, ptr noundef %3, i32 noundef %4, ptr noundef %5, ptr noundef %6) #2 {
  %8 = alloca ptr, align 8
  %9 = alloca ptr, align 8
  %10 = alloca ptr, align 8
  %11 = alloca ptr, align 8
  %12 = alloca i32, align 4
  %13 = alloca ptr, align 8
  %14 = alloca ptr, align 8
  %15 = alloca ptr, align 8
  %16 = alloca i32, align 4
  %17 = alloca i32, align 4
  store ptr %0, ptr %8, align 8, !tbaa !34
  store ptr %1, ptr %9, align 8, !tbaa !34
  store ptr %2, ptr %10, align 8, !tbaa !34
  store ptr %3, ptr %11, align 8, !tbaa !34
  store i32 %4, ptr %12, align 4, !tbaa !30
  store ptr %5, ptr %13, align 8, !tbaa !35
  store ptr %6, ptr %14, align 8, !tbaa !31
  call void @llvm.lifetime.start.p0(i64 8, ptr %15) #9
  %18 = load ptr, ptr %8, align 8, !tbaa !34
  store ptr %18, ptr %15, align 8, !tbaa !43
  call void @llvm.lifetime.start.p0(i64 4, ptr %16) #9
  store i32 0, ptr %16, align 4, !tbaa !30
  br label %19

19:                                               ; preds = %42, %7
  %20 = load i32, ptr %16, align 4, !tbaa !30
  %21 = load i32, ptr %12, align 4, !tbaa !30
  %22 = icmp slt i32 %20, %21
  br i1 %22, label %23, label %45

23:                                               ; preds = %19
  call void @llvm.lifetime.start.p0(i64 4, ptr %17) #9
  %24 = load ptr, ptr %9, align 8, !tbaa !34
  %25 = load i32, ptr %16, align 4, !tbaa !30
  %26 = sext i32 %25 to i64
  %27 = getelementptr inbounds i8, ptr %24, i64 %26
  %28 = load i8, ptr %27, align 1, !tbaa !36
  %29 = zext i8 %28 to i32
  store i32 %29, ptr %17, align 4, !tbaa !30
  %30 = load ptr, ptr %13, align 8, !tbaa !35
  %31 = load i32, ptr %17, align 4, !tbaa !30
  %32 = sext i32 %31 to i64
  %33 = getelementptr inbounds i32, ptr %30, i64 %32
  %34 = load i32, ptr %33, align 4, !tbaa !30
  %35 = and i32 %34, 255
  %36 = shl i32 %35, 6
  %37 = trunc i32 %36 to i16
  %38 = load ptr, ptr %15, align 8, !tbaa !43
  %39 = load i32, ptr %16, align 4, !tbaa !30
  %40 = sext i32 %39 to i64
  %41 = getelementptr inbounds i16, ptr %38, i64 %40
  store i16 %37, ptr %41, align 2, !tbaa !44
  call void @llvm.lifetime.end.p0(i64 4, ptr %17) #9
  br label %42

42:                                               ; preds = %23
  %43 = load i32, ptr %16, align 4, !tbaa !30
  %44 = add nsw i32 %43, 1
  store i32 %44, ptr %16, align 4, !tbaa !30
  br label %19, !llvm.loop !93

45:                                               ; preds = %19
  call void @llvm.lifetime.end.p0(i64 4, ptr %16) #9
  call void @llvm.lifetime.end.p0(i64 8, ptr %15) #9
  ret void
}